target datalayout = "e-m:e-p270:32:32-p271:32:32-p272:64:64-i64:64-i128:128-f80:128-n8:16:32:64-S128"
target triple = "x86_64-pc-linux-gnu"

%struct.png_xy = type { i32, i32, i32, i32, i32, i32, i32, i32 }

; Function Attrs: nounwind uwtable
define internal i32 @png_colorspace_endpoints_match(ptr noundef %0, ptr noundef %1, i32 noundef %2) #0 {
  %4 = alloca i32, align 4
  %5 = alloca ptr, align 8
  %6 = alloca ptr, align 8
  %7 = alloca i32, align 4
  store ptr %0, ptr %5, align 8
  store ptr %1, ptr %6, align 8
  store i32 %2, ptr %7, align 4
  %8 = load ptr, ptr %5, align 8
  %9 = getelementptr inbounds %struct.png_xy, ptr %8, i32 0, i32 6
  %10 = load i32, ptr %9, align 4
  %11 = load ptr, ptr %6, align 8
  %12 = getelementptr inbounds %struct.png_xy, ptr %11, i32 0, i32 6
  %13 = load i32, ptr %12, align 4
  %14 = load i32, ptr %7, align 4
  %15 = sub nsw i32 %13, %14
  %16 = icmp slt i32 %10, %15
  br i1 %16, label %167, label %17

17:                                               ; preds = %3
  %18 = load ptr, ptr %5, align 8
  %19 = getelementptr inbounds %struct.png_xy, ptr %18, i32 0, i32 6
  %20 = load i32, ptr %19, align 4
  %21 = load ptr, ptr %6, align 8
  %22 = getelementptr inbounds %struct.png_xy, ptr %21, i32 0, i32 6
  %23 = load i32, ptr %22, align 4
  %24 = load i32, ptr %7, align 4
  %25 = add nsw i32 %23, %24
  %26 = icmp sgt i32 %20, %25
  br i1 %26, label %167, label %27

27:                                               ; preds = %17
  %28 = load ptr, ptr %5, align 8
  %29 = getelementptr inbounds %struct.png_xy, ptr %28, i32 0, i32 7
  %30 = load i32, ptr %29, align 4
  %31 = load ptr, ptr %6, align 8
  %32 = getelementptr inbounds %struct.png_xy, ptr %31, i32 0, i32 7
  %33 = load i32, ptr %32, align 4
  %34 = load i32, ptr %7, align 4
  %35 = sub nsw i32 %33, %34
  %36 = icmp slt i32 %30, %35
  br i1 %36, label %167, label %37

37:                                               ; preds = %27
  %38 = load ptr, ptr %5, align 8
  %39 = getelementptr inbounds %struct.png_xy, ptr %38, i32 0, i32 7
  %40 = load i32, ptr %39, align 4
  %41 = load ptr, ptr %6, align 8
  %42 = getelementptr inbounds %struct.png_xy, ptr %41, i32 0, i32 7
  %43 = load i32, ptr %42, align 4
  %44 = load i32, ptr %7, align 4
  %45 = add nsw i32 %43, %44
  %46 = icmp sgt i32 %40, %45
  br i1 %46, label %167, label %47

47:                                               ; preds = %37
  %48 = load ptr, ptr %5, align 8
  %49 = getelementptr inbounds %struct.png_xy, ptr %48, i32 0, i32 0
  %50 = load i32, ptr %49, align 4
  %51 = load ptr, ptr %6, align 8
  %52 = getelementptr inbounds %struct.png_xy, ptr %51, i32 0, i32 0
  %53 = load i32, ptr %52, align 4
  %54 = load i32, ptr %7, align 4
  %55 = sub nsw i32 %53, %54
  %56 = icmp slt i32 %50, %55
  br i1 %56, label %167, label %57

57:                                               ; preds = %47
  %58 = load ptr, ptr %5, align 8
  %59 = getelementptr inbounds %struct.png_xy, ptr %58, i32 0, i32 0
  %60 = load i32, ptr %59, align 4
  %61 = load ptr, ptr %6, align 8
  %62 = getelementptr inbounds %struct.png_xy, ptr %61, i32 0, i32 0
  %63 = load i32, ptr %62, align 4
  %64 = load i32, ptr %7, align 4
  %65 = add nsw i32 %63, %64
  %66 = icmp sgt i32 %60, %65
  br i1 %66, label %167, label %67

67:                                               ; preds = %57
  %68 = load ptr, ptr %5, align 8
  %69 = getelementptr inbounds %struct.png_xy, ptr %68, i32 0, i32 1
  %70 = load i32, ptr %69, align 4
  %71 = load ptr, ptr %6, align 8
  %72 = getelementptr inbounds %struct.png_xy, ptr %71, i32 0, i32 1
  %73 = load i32, ptr %72, align 4
  %74 = load i32, ptr %7, align 4
  %75 = sub nsw i32 %73, %74
  %76 = icmp slt i32 %70, %75
  br i1 %76, label %167, label %77

77:                                               ; preds = %67
  %78 = load ptr, ptr %5, align 8
  %79 = getelementptr inbounds %struct.png_xy, ptr %78, i32 0, i32 1
  %80 = load i32, ptr %79, align 4
  %81 = load ptr, ptr %6, align 8
  %82 = getelementptr inbounds %struct.png_xy, ptr %81, i32 0, i32 1
  %83 = load i32, ptr %82, align 4
  %84 = load i32, ptr %7, align 4
  %85 = add nsw i32 %83, %84
  %86 = icmp sgt i32 %80, %85
  br i1 %86, label %167, label %87

87:                                               ; preds = %77
  %88 = load ptr, ptr %5, align 8
  %89 = getelementptr inbounds %struct.png_xy, ptr %88, i32 0, i32 2
  %90 = load i32, ptr %89, align 4
  %91 = load ptr, ptr %6, align 8
  %92 = getelementptr inbounds %struct.png_xy, ptr %91, i32 0, i32 2
  %93 = load i32, ptr %92, align 4
  %94 = load i32, ptr %7, align 4
  %95 = sub nsw i32 %93, %94
  %96 = icmp slt i32 %90, %95
  br i1 %96, label %167, label %97

97:                                               ; preds = %87
  %98 = load ptr, ptr %5, align 8
  %99 = getelementptr inbounds %struct.png_xy, ptr %98, i32 0, i32 2
  %100 = load i32, ptr %99, align 4
  %101 = load ptr, ptr %6, align 8
  %102 = getelementptr inbounds %struct.png_xy, ptr %101, i32 0, i32 2
  %103 = load i32, ptr %102, align 4
  %104 = load i32, ptr %7, align 4
  %105 = add nsw i32 %103, %104
  %106 = icmp sgt i32 %100, %105
  br i1 %106, label %167, label %107

107:                                              ; preds = %97
  %108 = load ptr, ptr %5, align 8
  %109 = getelementptr inbounds %struct.png_xy, ptr %108, i32 0, i32 3
  %110 = load i32, ptr %109, align 4
  %111 = load ptr, ptr %6, align 8
  %112 = getelementptr inbounds %struct.png_xy, ptr %111, i32 0, i32 3
  %113 = load i32, ptr %112, align 4
  %114 = load i32, ptr %7, align 4
  %115 = sub nsw i32 %113, %114
  %116 = icmp slt i32 %110, %115
  br i1 %116, label %167, label %117

117:                                              ; preds = %107
  %118 = load ptr, ptr %5, align 8
  %119 = getelementptr inbounds %struct.png_xy, ptr %118, i32 0, i32 3
  %120 = load i32, ptr %119, align 4
  %121 = load ptr, ptr %6, align 8
  %122 = getelementptr inbounds %struct.png_xy, ptr %121, i32 0, i32 3
  %123 = load i32, ptr %122, align 4
  %124 = load i32, ptr %7, align 4
  %125 = add nsw i32 %123, %124
  %126 = icmp sgt i32 %120, %125
  br i1 %126, label %167, label %127

127:                                              ; preds = %117
  %128 = load ptr, ptr %5, align 8
  %129 = getelementptr inbounds %struct.png_xy, ptr %128, i32 0, i32 4
  %130 = load i32, ptr %129, align 4
  %131 = load ptr, ptr %6, align 8
  %132 = getelementptr inbounds %struct.png_xy, ptr %131, i32 0, i32 4
  %133 = load i32, ptr %132, align 4
  %134 = load i32, ptr %7, align 4
  %135 = sub nsw i32 %133, %134
  %136 = icmp slt i32 %130, %135
  br i1 %136, label %167, label %137

137:                                              ; preds = %127
  %138 = load ptr, ptr %5, align 8
  %139 = getelementptr inbounds %struct.png_xy, ptr %138, i32 0, i32 4
  %140 = load i32, ptr %139, align 4
  %141 = load ptr, ptr %6, align 8
  %142 = getelementptr inbounds %struct.png_xy, ptr %141, i32 0, i32 4
  %143 = load i32, ptr %142, align 4
  %144 = load i32, ptr %7, align 4
  %145 = add nsw i32 %143, %144
  %146 = icmp sgt i32 %140, %145
  br i1 %146, label %167, label %147

147:                                              ; preds = %137
  %148 = load ptr, ptr %5, align 8
  %149 = getelementptr inbounds %struct.png_xy, ptr %148, i32 0, i32 5
  %150 = load i32, ptr %149, align 4
  %151 = load ptr, ptr %6, align 8
  %152 = getelementptr inbounds %struct.png_xy, ptr %151, i32 0, i32 5
  %153 = load i32, ptr %152, align 4
  %154 = load i32, ptr %7, align 4
  %155 = sub nsw i32 %153, %154
  %156 = icmp slt i32 %150, %155
  br i1 %156, label %167, label %157

157:                                              ; preds = %147
  %158 = load ptr, ptr %5, align 8
  %159 = getelementptr inbounds %struct.png_xy, ptr %158, i32 0, i32 5
  %160 = load i32, ptr %159, align 4
  %161 = load ptr, ptr %6, align 8
  %162 = getelementptr inbounds %struct.png_xy, ptr %161, i32 0, i32 5
  %163 = load i32, ptr %162, align 4
  %164 = load i32, ptr %7, align 4
  %165 = add nsw i32 %163, %164
  %166 = icmp sgt i32 %160, %165
  br i1 %166, label %167, label %168

167:                                              ; preds = %157, %147, %137, %127, %117, %107, %97, %87, %77, %67, %57, %47, %37, %27, %17, %3
  store i32 0, ptr %4, align 4
  br label %169

168:                                              ; preds = %157
  store i32 1, ptr %4, align 4
  br label %169

169:                                              ; preds = %168, %167
  %170 = load i32, ptr %4, align 4
  ret i32 %170
}