; Function Attrs: mustprogress nofree norecurse nosync nounwind willreturn memory(argmem: read) uwtable
define internal fastcc range(i32 0, 2) i32 @png_colorspace_endpoints_match(ptr nocapture noundef readonly %0, ptr nocapture noundef readonly %1, i32 noundef %2) unnamed_addr #10 {
  %4 = getelementptr inbounds i8, ptr %0, i64 24
  %5 = load i32, ptr %4, align 4
  %6 = getelementptr inbounds i8, ptr %1, i64 24
  %7 = load i32, ptr %6, align 4
  %8 = sub nsw i32 %7, %2
  %9 = icmp slt i32 %5, %8
  %10 = add nsw i32 %7, %2
  %11 = icmp sgt i32 %5, %10
  %or.cond = select i1 %9, i1 true, i1 %11
  br i1 %or.cond, label %73, label %12

12:                                               ; preds = %3
  %13 = getelementptr inbounds i8, ptr %0, i64 28
  %14 = load i32, ptr %13, align 4
  %15 = getelementptr inbounds i8, ptr %1, i64 28
  %16 = load i32, ptr %15, align 4
  %17 = sub nsw i32 %16, %2
  %18 = icmp slt i32 %14, %17
  %19 = add nsw i32 %16, %2
  %20 = icmp sgt i32 %14, %19
  %or.cond58 = select i1 %18, i1 true, i1 %20
  br i1 %or.cond58, label %73, label %21

21:                                               ; preds = %12
  %22 = load i32, ptr %0, align 4
  %23 = load i32, ptr %1, align 4
  %24 = sub nsw i32 %23, %2
  %25 = icmp slt i32 %22, %24
  %26 = add nsw i32 %23, %2
  %27 = icmp sgt i32 %22, %26
  %or.cond60 = select i1 %25, i1 true, i1 %27
  br i1 %or.cond60, label %73, label %28

28:                                               ; preds = %21
  %29 = getelementptr inbounds i8, ptr %0, i64 4
  %30 = load i32, ptr %29, align 4
  %31 = getelementptr inbounds i8, ptr %1, i64 4
  %32 = load i32, ptr %31, align 4
  %33 = sub nsw i32 %32, %2
  %34 = icmp slt i32 %30, %33
  %35 = add nsw i32 %32, %2
  %36 = icmp sgt i32 %30, %35
  %or.cond62 = select i1 %34, i1 true, i1 %36
  br i1 %or.cond62, label %73, label %37

37:                                               ; preds = %28
  %38 = getelementptr inbounds i8, ptr %0, i64 8
  %39 = load i32, ptr %38, align 4
  %40 = getelementptr inbounds i8, ptr %1, i64 8
  %41 = load i32, ptr %40, align 4
  %42 = sub nsw i32 %41, %2
  %43 = icmp slt i32 %39, %42
  %44 = add nsw i32 %41, %2
  %45 = icmp sgt i32 %39, %44
  %or.cond64 = select i1 %43, i1 true, i1 %45
  br i1 %or.cond64, label %73, label %46

46:                                               ; preds = %37
  %47 = getelementptr inbounds i8, ptr %0, i64 12
  %48 = load i32, ptr %47, align 4
  %49 = getelementptr inbounds i8, ptr %1, i64 12
  %50 = load i32, ptr %49, align 4
  %51 = sub nsw i32 %50, %2
  %52 = icmp slt i32 %48, %51
  %53 = add nsw i32 %50, %2
  %54 = icmp sgt i32 %48, %53
  %or.cond66 = select i1 %52, i1 true, i1 %54
  br i1 %or.cond66, label %73, label %55

55:                                               ; preds = %46
  %56 = getelementptr inbounds i8, ptr %0, i64 16
  %57 = load i32, ptr %56, align 4
  %58 = getelementptr inbounds i8, ptr %1, i64 16
  %59 = load i32, ptr %58, align 4
  %60 = sub nsw i32 %59, %2
  %61 = icmp slt i32 %57, %60
  %62 = add nsw i32 %59, %2
  %63 = icmp sgt i32 %57, %62
  %or.cond68 = select i1 %61, i1 true, i1 %63
  br i1 %or.cond68, label %73, label %64

64:                                               ; preds = %55
  %65 = getelementptr inbounds i8, ptr %0, i64 20
  %66 = load i32, ptr %65, align 4
  %67 = getelementptr inbounds i8, ptr %1, i64 20
  %68 = load i32, ptr %67, align 4
  %69 = sub nsw i32 %68, %2
  %70 = icmp sge i32 %66, %69
  %71 = add nsw i32 %68, %2
  %72 = icmp sle i32 %66, %71
  %or.cond70.not = select i1 %70, i1 %72, i1 false
  %spec.select = zext i1 %or.cond70.not to i32
  br label %73

73:                                               ; preds = %64, %3, %12, %21, %28, %37, %46, %55
  %.0 = phi i32 [ 0, %55 ], [ 0, %46 ], [ 0, %37 ], [ 0, %28 ], [ 0, %21 ], [ 0, %12 ], [ 0, %3 ], [ %spec.select, %64 ]
  ret i32 %.0
}